; Function Attrs: mustprogress uwtable
define noundef nonnull align 8 dereferenceable(8) ptr @_ZN32pxrInternal_v0_24__pxrReserved__lsERSoRKSt10shared_ptrINS_8Usd_ClipEE(ptr noundef nonnull returned align 8 dereferenceable(8) %0, ptr noundef nonnull readonly align 8 captures(none) dereferenceable(16) %1) local_unnamed_addr #0 personality ptr @__gxx_personality_v0 {
  %3 = alloca %"class.std::__cxx11::basic_ostringstream", align 8
  %4 = alloca %"class.std::__cxx11::basic_string", align 8
  %5 = alloca %"class.std::__cxx11::basic_string", align 8
  %6 = alloca %"class.std::__cxx11::basic_string", align 8
  %7 = alloca %"class.std::__cxx11::basic_string", align 8
  %8 = load ptr, ptr %1, align 8
  %9 = getelementptr inbounds nuw i8, ptr %8, i64 40
  call void @llvm.lifetime.start.p0(i64 376, ptr nonnull %3)
  call void @_ZNSt7__cxx1119basic_ostringstreamIcSt11char_traitsIcESaIcEEC1Ev(ptr noundef nonnull align 8 dereferenceable(112) %3), !noalias !19
  %10 = invoke noundef nonnull align 8 dereferenceable(8) ptr @_ZN32pxrInternal_v0_24__pxrReserved__lsERSoRKNS_12SdfAssetPathE(ptr noundef nonnull align 8 dereferenceable(8) %3, ptr noundef nonnull align 8 dereferenceable(64) %9)
          to label %11 unwind label %12, !noalias !19

11:                                               ; preds = %2
  invoke void @_ZNKSt7__cxx1119basic_ostringstreamIcSt11char_traitsIcESaIcEE3strEv(ptr dead_on_unwind nonnull writable sret(%"class.std::__cxx11::basic_string") align 8 %5, ptr noundef nonnull align 8 dereferenceable(112) %3)
          to label %_ZN32pxrInternal_v0_24__pxrReserved__11TfStringifyINS_12SdfAssetPathEEENSt7__cxx1112basic_stringIcSt11char_traitsIcESaIcEEERKT_.exit unwind label %12

common.resume:                                    ; preds = %57, %12
  %common.resume.op = phi { ptr, i32 } [ %13, %12 ], [ %.pn.pn.pn, %57 ]
  resume { ptr, i32 } %common.resume.op

12:                                               ; preds = %11, %2
  %13 = landingpad { ptr, i32 }
          cleanup
  call void @_ZNSt7__cxx1119basic_ostringstreamIcSt11char_traitsIcESaIcEED1Ev(ptr noundef nonnull align 8 dereferenceable(112) %3) #18
  br label %common.resume

_ZN32pxrInternal_v0_24__pxrReserved__11TfStringifyINS_12SdfAssetPathEEENSt7__cxx1112basic_stringIcSt11char_traitsIcESaIcEEERKT_.exit: ; preds = %11
  call void @_ZNSt7__cxx1119basic_ostringstreamIcSt11char_traitsIcESaIcEED1Ev(ptr noundef nonnull align 8 dereferenceable(112) %3) #18
  call void @llvm.lifetime.end.p0(i64 376, ptr nonnull %3)
  %14 = call noundef ptr @_ZNKSt7__cxx1112basic_stringIcSt11char_traitsIcESaIcEE5c_strEv(ptr noundef nonnull align 8 dereferenceable(32) %5) #18
  %15 = load ptr, ptr %1, align 8
  %16 = getelementptr inbounds nuw i8, ptr %15, i64 104
  %17 = invoke noundef nonnull align 8 dereferenceable(32) ptr @_ZNK32pxrInternal_v0_24__pxrReserved__7SdfPath9GetStringB5cxx11Ev(ptr noundef nonnull align 4 dereferenceable(8) %16)
          to label %18 unwind label %45

18:                                               ; preds = %_ZN32pxrInternal_v0_24__pxrReserved__11TfStringifyINS_12SdfAssetPathEEENSt7__cxx1112basic_stringIcSt11char_traitsIcESaIcEEERKT_.exit
  %19 = call noundef ptr @_ZNKSt7__cxx1112basic_stringIcSt11char_traitsIcESaIcEE5c_strEv(ptr noundef nonnull align 8 dereferenceable(32) %17) #18
  %20 = load ptr, ptr %1, align 8
  %21 = getelementptr inbounds nuw i8, ptr %20, i64 120
  %22 = load double, ptr %21, align 8
  %23 = fcmp une double %22, 0xFFEFFFFFFFFFFFFF
  br i1 %23, label %24, label %27

24:                                               ; preds = %18
  invoke void (ptr, ptr, ...) @_ZN32pxrInternal_v0_24__pxrReserved__14TfStringPrintfB5cxx11EPKcz(ptr dead_on_unwind nonnull writable sret(%"class.std::__cxx11::basic_string") align 8 %6, ptr noundef nonnull @.str.2, double noundef %22)
          to label %25 unwind label %45

25:                                               ; preds = %24
  %26 = call noundef ptr @_ZNKSt7__cxx1112basic_stringIcSt11char_traitsIcESaIcEE5c_strEv(ptr noundef nonnull align 8 dereferenceable(32) %6) #18
  %.pre = load ptr, ptr %1, align 8
  br label %27

27:                                               ; preds = %18, %25
  %28 = phi ptr [ %20, %18 ], [ %.pre, %25 ]
  %29 = phi ptr [ @.str.1, %18 ], [ %26, %25 ]
  %30 = getelementptr inbounds nuw i8, ptr %28, i64 128
  %31 = load double, ptr %30, align 8
  %32 = fcmp une double %31, 0x7FEFFFFFFFFFFFFF
  br i1 %32, label %33, label %36

33:                                               ; preds = %27
  invoke void (ptr, ptr, ...) @_ZN32pxrInternal_v0_24__pxrReserved__14TfStringPrintfB5cxx11EPKcz(ptr dead_on_unwind nonnull writable sret(%"class.std::__cxx11::basic_string") align 8 %7, ptr noundef nonnull @.str.2, double noundef %31)
          to label %34 unwind label %47

34:                                               ; preds = %33
  %35 = call noundef ptr @_ZNKSt7__cxx1112basic_stringIcSt11char_traitsIcESaIcEE5c_strEv(ptr noundef nonnull align 8 dereferenceable(32) %7) #18
  br label %36

36:                                               ; preds = %27, %34
  %37 = phi ptr [ @.str.3, %27 ], [ %35, %34 ]
  invoke void (ptr, ptr, ...) @_ZN32pxrInternal_v0_24__pxrReserved__14TfStringPrintfB5cxx11EPKcz(ptr dead_on_unwind nonnull writable sret(%"class.std::__cxx11::basic_string") align 8 %4, ptr noundef nonnull @.str, ptr noundef %14, ptr noundef %19, ptr noundef %29, ptr noundef %37)
          to label %38 unwind label %49

38:                                               ; preds = %36
  %39 = invoke noundef nonnull align 8 dereferenceable(8) ptr @_ZStlsIcSt11char_traitsIcESaIcEERSt13basic_ostreamIT_T0_ES7_RKNSt7__cxx1112basic_stringIS4_S5_T1_EE(ptr noundef nonnull align 8 dereferenceable(8) %0, ptr noundef nonnull align 8 dereferenceable(32) %4)
          to label %40 unwind label %51

40:                                               ; preds = %38
  call void @_ZNSt7__cxx1112basic_stringIcSt11char_traitsIcESaIcEED1Ev(ptr noundef nonnull align 8 dereferenceable(32) %4) #18
  br i1 %32, label %41, label %42

41:                                               ; preds = %40
  call void @_ZNSt7__cxx1112basic_stringIcSt11char_traitsIcESaIcEED1Ev(ptr noundef nonnull align 8 dereferenceable(32) %7) #18
  br label %42

42:                                               ; preds = %41, %40
  br i1 %23, label %43, label %44

43:                                               ; preds = %42
  call void @_ZNSt7__cxx1112basic_stringIcSt11char_traitsIcESaIcEED1Ev(ptr noundef nonnull align 8 dereferenceable(32) %6) #18
  br label %44

44:                                               ; preds = %43, %42
  call void @_ZNSt7__cxx1112basic_stringIcSt11char_traitsIcESaIcEED1Ev(ptr noundef nonnull align 8 dereferenceable(32) %5) #18
  ret ptr %0

45:                                               ; preds = %24, %_ZN32pxrInternal_v0_24__pxrReserved__11TfStringifyINS_12SdfAssetPathEEENSt7__cxx1112basic_stringIcSt11char_traitsIcESaIcEEERKT_.exit
  %46 = landingpad { ptr, i32 }
          cleanup
  br label %57

47:                                               ; preds = %33
  %48 = landingpad { ptr, i32 }
          cleanup
  br label %55

49:                                               ; preds = %36
  %50 = landingpad { ptr, i32 }
          cleanup
  br label %53

51:                                               ; preds = %38
  %52 = landingpad { ptr, i32 }
          cleanup
  call void @_ZNSt7__cxx1112basic_stringIcSt11char_traitsIcESaIcEED1Ev(ptr noundef nonnull align 8 dereferenceable(32) %4) #18
  br label %53

53:                                               ; preds = %51, %49
  %.pn = phi { ptr, i32 } [ %52, %51 ], [ %50, %49 ]
  br i1 %32, label %54, label %55

54:                                               ; preds = %53
  call void @_ZNSt7__cxx1112basic_stringIcSt11char_traitsIcESaIcEED1Ev(ptr noundef nonnull align 8 dereferenceable(32) %7) #18
  br label %55

55:                                               ; preds = %53, %54, %47
  %.pn.pn = phi { ptr, i32 } [ %.pn, %54 ], [ %.pn, %53 ], [ %48, %47 ]
  br i1 %23, label %56, label %57

56:                                               ; preds = %55
  call void @_ZNSt7__cxx1112basic_stringIcSt11char_traitsIcESaIcEED1Ev(ptr noundef nonnull align 8 dereferenceable(32) %6) #18
  br label %57

57:                                               ; preds = %55, %56, %45
  %.pn.pn.pn = phi { ptr, i32 } [ %.pn.pn, %56 ], [ %.pn.pn, %55 ], [ %46, %45 ]
  call void @_ZNSt7__cxx1112basic_stringIcSt11char_traitsIcESaIcEED1Ev(ptr noundef nonnull align 8 dereferenceable(32) %5) #18
  br label %common.resume
}